target datalayout = "e-m:e-p270:32:32-p271:32:32-p272:64:64-i64:64-i128:128-f80:128-n8:16:32:64-S128"
target triple = "x86_64-pc-linux-gnu"

%"class.std::unordered_map" = type { %"class.std::_Hashtable" }
%"class.std::_Hashtable" = type { ptr, i64, %"struct.std::__detail::_Hash_node_base", i64, %"struct.std::__detail::_Prime_rehash_policy", ptr }
%"struct.std::__detail::_Hash_node_base" = type { ptr }
%"struct.std::__detail::_Prime_rehash_policy" = type { float, i64 }
%"class.ue2::graph_detail::vertex_descriptor" = type { ptr, i64 }
%"class.ue2::NGHolder" = type { ptr, %"class.ue2::ue2_graph", i32, %"class.ue2::graph_detail::vertex_descriptor", %"class.ue2::graph_detail::vertex_descriptor", %"class.ue2::graph_detail::vertex_descriptor", %"class.ue2::graph_detail::vertex_descriptor" }
%"class.ue2::ue2_graph" = type { %"class.boost::intrusive::list", i64, i64, i64, i64 }
%"class.boost::intrusive::list" = type { %"class.boost::intrusive::list_impl" }
%"class.boost::intrusive::list_impl" = type { %"struct.boost::intrusive::list_impl<boost::intrusive::bhtraits<ue2::ue2_graph<ue2::NGHolder, ue2::NFAGraphVertexProps, ue2::NFAGraphEdgeProps>::vertex_node, boost::intrusive::list_node_traits<void *>, boost::intrusive::safe_link, boost::intrusive::dft_tag, 1>, unsigned long, true, void>::data_t" }
%"struct.boost::intrusive::list_impl<boost::intrusive::bhtraits<ue2::ue2_graph<ue2::NGHolder, ue2::NFAGraphVertexProps, ue2::NFAGraphEdgeProps>::vertex_node, boost::intrusive::list_node_traits<void *>, boost::intrusive::safe_link, boost::intrusive::dft_tag, 1>, unsigned long, true, void>::data_t" = type { %"struct.boost::intrusive::list_impl<boost::intrusive::bhtraits<ue2::ue2_graph<ue2::NGHolder, ue2::NFAGraphVertexProps, ue2::NFAGraphEdgeProps>::vertex_node, boost::intrusive::list_node_traits<void *>, boost::intrusive::safe_link, boost::intrusive::dft_tag, 1>, unsigned long, true, void>::root_plus_size" }
%"struct.boost::intrusive::list_impl<boost::intrusive::bhtraits<ue2::ue2_graph<ue2::NGHolder, ue2::NFAGraphVertexProps, ue2::NFAGraphEdgeProps>::vertex_node, boost::intrusive::list_node_traits<void *>, boost::intrusive::safe_link, boost::intrusive::dft_tag, 1>, unsigned long, true, void>::root_plus_size" = type { %"struct.boost::intrusive::detail::size_holder", %"struct.boost::intrusive::detail::default_header_holder" }
%"struct.boost::intrusive::detail::size_holder" = type { i64 }
%"struct.boost::intrusive::detail::default_header_holder" = type { %"struct.boost::intrusive::list_node" }
%"struct.boost::intrusive::list_node" = type { ptr, ptr }
%"class.boost::reverse_graph" = type { ptr }

; Function Attrs: mustprogress nounwind uwtable
define linkonce_odr hidden void @_ZN5boost13reverse_graphIN3ue28NGHolderERKS2_EC2ES4_(ptr noundef nonnull align 8 dereferenceable(8) %0, ptr noundef nonnull align 8 dereferenceable(136) %1) unnamed_addr #1 comdat align 2 {
  %3 = alloca ptr, align 8
  %4 = alloca ptr, align 8
  store ptr %0, ptr %3, align 8
  store ptr %1, ptr %4, align 8
  %5 = load ptr, ptr %3, align 8
  %6 = getelementptr inbounds nuw %"class.boost::reverse_graph", ptr %5, i32 0, i32 0
  %7 = load ptr, ptr %4, align 8
  store ptr %7, ptr %6, align 8
  ret void
}

; Function Attrs: mustprogress uwtable
define hidden void @_ZN3ue218findPostDominatorsERKNS_8NGHolderE(ptr dead_on_unwind noalias writable sret(%"class.std::unordered_map") align 8 %0, ptr noundef nonnull align 8 dereferenceable(136) %1) #3 {
  %3 = alloca ptr, align 8
  %4 = alloca ptr, align 8
  %5 = alloca %"class.boost::reverse_graph", align 8
  %6 = alloca %"class.ue2::graph_detail::vertex_descriptor", align 8
  store ptr %0, ptr %3, align 8
  store ptr %1, ptr %4, align 8
  call void @llvm.lifetime.start.p0(i64 8, ptr %5) #16
  %7 = load ptr, ptr %4, align 8
  call void @_ZN5boost13reverse_graphIN3ue28NGHolderERKS2_EC2ES4_(ptr noundef nonnull align 8 dereferenceable(8) %5, ptr noundef nonnull align 8 dereferenceable(136) %7)
  %8 = load ptr, ptr %4, align 8
  %9 = getelementptr inbounds nuw %"class.ue2::NGHolder", ptr %8, i32 0, i32 6
  call void @llvm.memcpy.p0.p0.i64(ptr align 8 %6, ptr align 8 %9, i64 16, i1 false)
  %10 = getelementptr inbounds nuw { ptr, i64 }, ptr %6, i32 0, i32 0
  %11 = load ptr, ptr %10, align 8
  %12 = getelementptr inbounds nuw { ptr, i64 }, ptr %6, i32 0, i32 1
  %13 = load i64, ptr %12, align 8
  call void @_ZN3ue214calcDominatorsIN5boost13reverse_graphINS_8NGHolderERKS3_EEEESt13unordered_mapINS_12graph_detail17vertex_descriptorINS_9ue2_graphIS3_NS_19NFAGraphVertexPropsENS_17NFAGraphEdgePropsEEEEESE_St4hashISE_ESt8equal_toISE_ESaISt4pairIKSE_SE_EEERKT_NSO_17vertex_descriptorE(ptr dead_on_unwind writable sret(%"class.std::unordered_map") align 8 %0, ptr noundef nonnull align 8 dereferenceable(8) %5, ptr %11, i64 %13)
  call void @llvm.lifetime.end.p0(i64 8, ptr %5) #16
  ret void
}