; Function Attrs: mustprogress uwtable
define hidden void @_ZN3ue218findPostDominatorsERKNS_8NGHolderE(ptr dead_on_unwind noalias writable sret(%"class.std::unordered_map") align 8 %0, ptr noundef nonnull align 8 dereferenceable(136) %1) local_unnamed_addr #0 {
  %3 = alloca %"class.boost::reverse_graph", align 8
  call void @llvm.lifetime.start.p0(i64 8, ptr nonnull %3) #16
  store ptr %1, ptr %3, align 8
  %4 = getelementptr inbounds nuw i8, ptr %1, i64 120
  %.sroa.0.0.copyload = load ptr, ptr %4, align 8
  %.sroa.2.0..sroa_idx = getelementptr inbounds nuw i8, ptr %1, i64 128
  %.sroa.2.0.copyload = load i64, ptr %.sroa.2.0..sroa_idx, align 8
  call void @_ZN3ue214calcDominatorsIN5boost13reverse_graphINS_8NGHolderERKS3_EEEESt13unordered_mapINS_12graph_detail17vertex_descriptorINS_9ue2_graphIS3_NS_19NFAGraphVertexPropsENS_17NFAGraphEdgePropsEEEEESE_St4hashISE_ESt8equal_toISE_ESaISt4pairIKSE_SE_EEERKT_NSO_17vertex_descriptorE(ptr dead_on_unwind writable sret(%"class.std::unordered_map") align 8 %0, ptr noundef nonnull align 8 dereferenceable(8) %3, ptr %.sroa.0.0.copyload, i64 %.sroa.2.0.copyload)
  call void @llvm.lifetime.end.p0(i64 8, ptr nonnull %3) #16
  ret void
}